; Function Attrs: mustprogress nofree norecurse nosync nounwind willreturn memory(argmem: readwrite) uwtable
define noundef nonnull align 8 dereferenceable(16) ptr @_ZN5arrow15BasicDecimal128pLERKS0_(ptr noundef nonnull returned align 8 captures(ret: address, provenance) dereferenceable(16) %0, ptr noundef nonnull readonly align 8 captures(none) dereferenceable(16) %1) local_unnamed_addr #5 align 2 {
  %3 = getelementptr inbounds nuw i8, ptr %0, i64 8
  %4 = load i64, ptr %3, align 8, !tbaa !7
  %5 = getelementptr inbounds nuw i8, ptr %1, i64 8
  %6 = load i64, ptr %5, align 8, !tbaa !7
  %7 = add i64 %6, %4
  %8 = load i64, ptr %0, align 8, !tbaa !7
  %9 = load i64, ptr %1, align 8, !tbaa !7
  %10 = add i64 %9, %8
  %11 = icmp ult i64 %10, %8
  %12 = zext i1 %11 to i64
  %13 = add i64 %7, %12
  store i64 %10, ptr %0, align 8
  store i64 %13, ptr %3, align 8
  ret ptr %0
}